; ModuleID = '4/2168.c'
source_filename = "4/2168.c"
target datalayout = "e-m:e-p270:32:32-p271:32:32-p272:64:64-i64:64-f80:128-n8:16:32:64-S128"
target triple = "x86_64-pc-linux-gnu"

@.str = private unnamed_addr constant [6 x i8] c"%d %d\00", align 1
@.str.1 = private unnamed_addr constant [3 x i8] c"%d\00", align 1
@.str.2 = private unnamed_addr constant [4 x i8] c"%d\0A\00", align 1

; Function Attrs: noinline nounwind uwtable
define dso_local i32 @main() #0 {
  %1 = alloca i32, align 4
  %2 = alloca i32, align 4
  %3 = alloca i32, align 4
  %4 = alloca i8*, align 8
  %5 = alloca i64, align 8
  %6 = alloca i64, align 8
  %7 = alloca i32, align 4
  %8 = alloca i32, align 4
  %9 = alloca i32, align 4
  store i32 0, i32* %1, align 4
  %10 = call i32 (i8*, ...) @__isoc99_scanf(i8* getelementptr inbounds ([6 x i8], [6 x i8]* @.str, i64 0, i64 0), i32* %2, i32* %3)
  %11 = load i32, i32* %2, align 4
  %12 = zext i32 %11 to i64
  %13 = load i32, i32* %3, align 4
  %14 = zext i32 %13 to i64
  %15 = call i8* @llvm.stacksave()
  store i8* %15, i8** %4, align 8
  %16 = mul nuw i64 %12, %14
  %17 = alloca i32, i64 %16, align 16
  store i64 %12, i64* %5, align 8
  store i64 %14, i64* %6, align 8
  store i32 0, i32* %7, align 4
  br label %18

18:                                               ; preds = %40, %0
  %19 = load i32, i32* %7, align 4
  %20 = load i32, i32* %2, align 4
  %21 = icmp slt i32 %19, %20
  br i1 %21, label %22, label %43

22:                                               ; preds = %18
  store i32 0, i32* %8, align 4
  br label %23

23:                                               ; preds = %36, %22
  %24 = load i32, i32* %8, align 4
  %25 = load i32, i32* %3, align 4
  %26 = icmp slt i32 %24, %25
  br i1 %26, label %27, label %39

27:                                               ; preds = %23
  %28 = load i32, i32* %7, align 4
  %29 = sext i32 %28 to i64
  %30 = mul nsw i64 %29, %14
  %31 = getelementptr inbounds i32, i32* %17, i64 %30
  %32 = load i32, i32* %8, align 4
  %33 = sext i32 %32 to i64
  %34 = getelementptr inbounds i32, i32* %31, i64 %33
  %35 = call i32 (i8*, ...) @__isoc99_scanf(i8* getelementptr inbounds ([3 x i8], [3 x i8]* @.str.1, i64 0, i64 0), i32* %34)
  br label %36

36:                                               ; preds = %27
  %37 = load i32, i32* %8, align 4
  %38 = add nsw i32 %37, 1
  store i32 %38, i32* %8, align 4
  br label %23

39:                                               ; preds = %23
  br label %40

40:                                               ; preds = %39
  %41 = load i32, i32* %7, align 4
  %42 = add nsw i32 %41, 1
  store i32 %42, i32* %7, align 4
  br label %18

43:                                               ; preds = %18
  store i32 0, i32* %7, align 4
  br label %44

44:                                               ; preds = %75, %43
  %45 = load i32, i32* %7, align 4
  %46 = load i32, i32* %3, align 4
  %47 = icmp slt i32 %45, %46
  br i1 %47, label %48, label %78

48:                                               ; preds = %44
  %49 = load i32, i32* %7, align 4
  store i32 %49, i32* %8, align 4
  store i32 0, i32* %9, align 4
  br label %50

50:                                               ; preds = %69, %48
  %51 = load i32, i32* %9, align 4
  %52 = load i32, i32* %2, align 4
  %53 = icmp slt i32 %51, %52
  br i1 %53, label %54, label %57

54:                                               ; preds = %50
  %55 = load i32, i32* %8, align 4
  %56 = icmp sgt i32 %55, -1
  br label %57

57:                                               ; preds = %54, %50
  %58 = phi i1 [ false, %50 ], [ %56, %54 ]
  br i1 %58, label %59, label %74

59:                                               ; preds = %57
  %60 = load i32, i32* %9, align 4
  %61 = sext i32 %60 to i64
  %62 = mul nsw i64 %61, %14
  %63 = getelementptr inbounds i32, i32* %17, i64 %62
  %64 = load i32, i32* %8, align 4
  %65 = sext i32 %64 to i64
  %66 = getelementptr inbounds i32, i32* %63, i64 %65
  %67 = load i32, i32* %66, align 4
  %68 = call i32 (i8*, ...) @printf(i8* getelementptr inbounds ([4 x i8], [4 x i8]* @.str.2, i64 0, i64 0), i32 %67)
  br label %69

69:                                               ; preds = %59
  %70 = load i32, i32* %8, align 4
  %71 = add nsw i32 %70, -1
  store i32 %71, i32* %8, align 4
  %72 = load i32, i32* %9, align 4
  %73 = add nsw i32 %72, 1
  store i32 %73, i32* %9, align 4
  br label %50

74:                                               ; preds = %57
  br label %75

75:                                               ; preds = %74
  %76 = load i32, i32* %7, align 4
  %77 = add nsw i32 %76, 1
  store i32 %77, i32* %7, align 4
  br label %44

78:                                               ; preds = %44
  store i32 1, i32* %7, align 4
  br label %79

79:                                               ; preds = %112, %78
  %80 = load i32, i32* %7, align 4
  %81 = load i32, i32* %2, align 4
  %82 = icmp slt i32 %80, %81
  br i1 %82, label %83, label %115

83:                                               ; preds = %79
  %84 = load i32, i32* %7, align 4
  store i32 %84, i32* %8, align 4
  %85 = load i32, i32* %3, align 4
  %86 = sub nsw i32 %85, 1
  store i32 %86, i32* %9, align 4
  br label %87

87:                                               ; preds = %106, %83
  %88 = load i32, i32* %8, align 4
  %89 = load i32, i32* %2, align 4
  %90 = icmp slt i32 %88, %89
  br i1 %90, label %91, label %94

91:                                               ; preds = %87
  %92 = load i32, i32* %9, align 4
  %93 = icmp sgt i32 %92, -1
  br label %94

94:                                               ; preds = %91, %87
  %95 = phi i1 [ false, %87 ], [ %93, %91 ]
  br i1 %95, label %96, label %111

96:                                               ; preds = %94
  %97 = load i32, i32* %8, align 4
  %98 = sext i32 %97 to i64
  %99 = mul nsw i64 %98, %14
  %100 = getelementptr inbounds i32, i32* %17, i64 %99
  %101 = load i32, i32* %9, align 4
  %102 = sext i32 %101 to i64
  %103 = getelementptr inbounds i32, i32* %100, i64 %102
  %104 = load i32, i32* %103, align 4
  %105 = call i32 (i8*, ...) @printf(i8* getelementptr inbounds ([4 x i8], [4 x i8]* @.str.2, i64 0, i64 0), i32 %104)
  br label %106

106:                                              ; preds = %96
  %107 = load i32, i32* %8, align 4
  %108 = add nsw i32 %107, 1
  store i32 %108, i32* %8, align 4
  %109 = load i32, i32* %9, align 4
  %110 = add nsw i32 %109, -1
  store i32 %110, i32* %9, align 4
  br label %87

111:                                              ; preds = %94
  br label %112

112:                                              ; preds = %111
  %113 = load i32, i32* %7, align 4
  %114 = add nsw i32 %113, 1
  store i32 %114, i32* %7, align 4
  br label %79

115:                                              ; preds = %79
  store i32 0, i32* %1, align 4
  %116 = load i8*, i8** %4, align 8
  call void @llvm.stackrestore(i8* %116)
  %117 = load i32, i32* %1, align 4
  ret i32 %117
}

declare dso_local i32 @__isoc99_scanf(i8*, ...) #1

; Function Attrs: nounwind
declare i8* @llvm.stacksave() #2

declare dso_local i32 @printf(i8*, ...) #1

; Function Attrs: nounwind
declare void @llvm.stackrestore(i8*) #2


!llvm.module.flags = !{!0}
!llvm.ident = !{!1}

!0 = !{i32 1, !"wchar_size", i32 4}
!1 = !{!"clang version 10.0.0-4ubuntu1 "}
